(dp0
S'4302'
p1
(dp2
S'nick'
p3
S'sss'
p4
sS'fileList'
p5
(dp6
S'ss'
p7
g7
sssS'4312'
p8
(dp9
S'nick'
p10
S'zego'
p11
sS'fileList'
p12
(dp13
S'mostafa_hi'
p14
g14
sssS'4313'
p15
(dp16
S'nick'
p17
S'Mostafa'
p18
sS'fileList'
p19
(dp20
S'kamel'
p21
g21
sssS'4286'
p22
(dp23
S'nick'
p24
S'Hager'
p25
sS'fileList'
p26
(dp27
S'Bye'
p28
g28
sssS'4285'
p29
(dp30
S'nick'
p31
S'Mostafa'
p32
sS'fileList'
p33
(dp34
S'Hello'
p35
g35
sssS'4295'
p36
(dp37
S'nick'
p38
S'zego'
p39
sS'fileList'
p40
(dp41
ssS'4319'
p42
(dp43
S'nick'
p44
S'ahmed'
p45
sS'fileList'
p46
(dp47
ssS'4309'
p48
(dp49
S'nick'
p50
S'ss'
p51
sS'fileList'
p52
(dp53
ssS'4304'
p54
(dp55
S'nick'
p56
S'ss'
p57
sS'fileList'
p58
(dp59
S'ss'
p60
g60
sssS'4314'
p61
(dp62
S'nick'
p63
S'Ahmed'
p64
sS'fileList'
p65
(dp66
S'damage'
p67
g67
sssS'4290'
p68
(dp69
S'nick'
p70
S'Mostafa'
p71
sS'fileList'
p72
(dp73
ssS'4293'
p74
(dp75
S'nick'
p76
S'zz'
p77
sS'fileList'
p78
(dp79
ssS'4324'
p80
(dp81
S'nick'
p82
S'ahmed'
p83
sS'fileList'
p84
(dp85
ssS'4321'
p86
(dp87
S'nick'
p88
S'mostafa'
p89
sS'fileList'
p90
(dp91
ssS'4311'
p92
(dp93
S'nick'
p94
S'zego'
p95
sS'fileList'
p96
(dp97
ssS'4322'
p98
(dp99
S'nick'
p100
S'ahmed'
p101
sS'fileList'
p102
(dp103
ssS'4325'
p104
(dp105
S'nick'
p106
S'ahmed'
p107
sS'fileList'
p108
(dp109
ssS'4299'
p110
(dp111
S'nick'
p112
S'sss'
p113
sS'fileList'
p114
(dp115
ssS'4323'
p116
(dp117
S'nick'
p118
S'ahmed'
p119
sS'fileList'
p120
(dp121
ss.